; Function Attrs: nounwind uwtable
define internal void @dissect_dl_bandwidth_support_value(ptr noundef %0, ptr noundef %1) #0 {
  %3 = alloca i64, align 8
  %4 = tail call ptr @ptvcursor_tree(ptr noundef %0) #7
  %5 = tail call ptr @ptvcursor_tvbuff(ptr noundef %0) #7
  %6 = tail call i32 @ptvcursor_current_offset(ptr noundef %0) #7
  %7 = load i32, ptr @hf_nfapi_dl_bandwidth_support, align 4
  %8 = load i32, ptr @ett_nfapi_downlink_bandwidth_support, align 4
  %9 = call ptr @proto_tree_add_bitmask_ret_uint64(ptr noundef %4, ptr noundef %5, i32 noundef %6, i32 noundef %7, i32 noundef %8, ptr noundef nonnull @dl_bandwidth_support_fields, i32 noundef 0, ptr noundef nonnull %3) #7
  %10 = load i64, ptr %3, align 8
  %11 = icmp ugt i64 %10, 63
  br i1 %11, label %12, label %14

12:                                               ; preds = %2
  %13 = call ptr (ptr, ptr, ptr, ptr, ...) @expert_add_info_format(ptr noundef %1, ptr noundef %9, ptr noundef nonnull @ei_invalid_range, ptr noundef nonnull @.str.1824) #7
  br label %14

14:                                               ; preds = %12, %2
  call void @ptvcursor_advance(ptr noundef %0, i32 noundef 2) #7
  ret void
}